EXPORTS
    GetNonZeroRect @1
    _Z22create_timeserver_confP8_xmlNode @2
    _Z25create_device_camera_confP8_xmlNode @3
    _ZN11subtraction12extraProcessEv @4
    _ZN11subtraction17getFaceEstimationEv @5
    _ZN11subtraction7isReadyEv @6
    _ZN11subtraction8getPartsEv @7
    _ZN11subtraction9getParamsEv @8
    _ZN11subtraction9grabFrameEv @9
    _ZN11subtraction9nextFrameEv @10
    _ZN11subtractionC1EPKc @11
    _ZN11subtractionC2EPKc @12
    _ZN11subtractionD1Ev @13
    _ZN11subtractionD2Ev @14
    _ZN12cameraModule10changeZoomEi @15
    _ZN12cameraModule11sendRequestEv @16
    _ZN12cameraModule11setDurationEi @17
    _ZN12cameraModule11startCameraEv @18
    _ZN12cameraModule12setFrameRateEi @19
    _ZN12cameraModule13setResolutionE6CvSize @20
    _ZN12cameraModule14setCompressionEi @21
    _ZN12cameraModule16reconstructFrameEv @22
    _ZN12cameraModule8getFrameEv @23
    _ZN12cameraModule9grabFrameEv @24
    _ZN12cameraModule9setFormatE22_camera_support_format @25
    _ZN12cameraModuleC1EPKci @26
    _ZN12cameraModuleC2EPKci @27
    _ZN12cameraModuleD1Ev @28
    _ZN12cameraModuleD2Ev @29
    _ZN12frameGrabber8getFrameEv @30
    _ZN12frameGrabberC1EP24_separ_device_avi_conf_t @31
    _ZN12frameGrabberC1EP27_separ_device_camera_conf_t @32
    _ZN12frameGrabberC1EP29_separ_device_sequence_conf_t @33
    _ZN12frameGrabberC2EP24_separ_device_avi_conf_t @34
    _ZN12frameGrabberC2EP27_separ_device_camera_conf_t @35
    _ZN12frameGrabberC2EP29_separ_device_sequence_conf_t @36
    _ZN12frameGrabberD1Ev @37
    _ZN12frameGrabberD2Ev @38
    _ZN15DKOSMOPredictor10classifyItEv @39
    _ZN15DKOSMOPredictor13initializeAllEP9_IplImage @40
    _ZN15DKOSMOPredictor15convertToVectorEv @41
    _ZN15DKOSMOPredictor15updateWithFrameEP9_IplImage @42
    _ZN15DKOSMOPredictor17computePredictionEv @43
    _ZN15DKOSMOPredictor7isReadyEv @44
    _ZN15DKOSMOPredictor7predictEv @45
    _ZN15DKOSMOPredictorC1EP24_separ_pixellevel_conf_t @46
    _ZN15DKOSMOPredictorC2EP24_separ_pixellevel_conf_t @47
    _ZN15DKOSMOPredictorD0Ev @48
    _ZN15DKOSMOPredictorD1Ev @49
    _ZN15DKOSMOPredictorD2Ev @50
    _ZN15encoderIsolator11recycle_SMSEP12_encoder_sms @51
    _ZN15encoderIsolator8getNamesEv @52
    _ZN15encoderIsolatorC1EP15_encoder_conf_ti @53
    _ZN15encoderIsolatorC2EP15_encoder_conf_ti @54
    _ZN15encoderIsolatorD1Ev @55
    _ZN15encoderIsolatorD2Ev @56
    _ZN17frame_description12getMaxLengthEv @57
    _ZN17frame_description12getTimeStampEv @58
    _ZN17frame_description12setTimeStampEv @59
    _ZN17frame_description4copyEPS_ @60
    _ZN17frame_description6updateEi @61
    _ZN17frame_description7getBlobEv @62
    _ZN17frame_description8getImageEv @63
    _ZN17frame_description8setImageEPv @64
    _ZN17frame_description9getLengthEv @65
    _ZN17frame_descriptionC1Ei @66
    _ZN17frame_descriptionC1Ev @67
    _ZN17frame_descriptionC2Ei @68
    _ZN17frame_descriptionC2Ev @69
    _ZN17frame_descriptionD1Ev @70
    _ZN17frame_descriptionD2Ev @71
    _ZN19encoderConfiguratorC1EPKc @72
    _ZN19encoderConfiguratorC2EPKc @73
    _ZN19encoderConfiguratorD1Ev @74
    _ZN19encoderConfiguratorD2Ev @75
    _ZN22fithisConnectedRegions10fithisDustEP7CvPoint @76
    _ZN22fithisConnectedRegions10isRelativeEPhS0_ @77
    _ZN22fithisConnectedRegions10newElementEP7CvPoint @78
    _ZN22fithisConnectedRegions11giveMosaicsEi @79
    _ZN22fithisConnectedRegions12fillWhenFullEPhPi @80
    _ZN22fithisConnectedRegions12getNextPointEv @81
    _ZN22fithisConnectedRegions12getSegMosaicEv @82
    _ZN22fithisConnectedRegions12setIndicatorEP9_IplImage @83
    _ZN22fithisConnectedRegions13ResetManagersEv @84
    _ZN22fithisConnectedRegions13cleanUpMosaicEv @85
    _ZN22fithisConnectedRegions13manageElementEP14_FithisMemElem @86
    _ZN22fithisConnectedRegions14isCorrectIndexEP7CvPoint @87
    _ZN22fithisConnectedRegions14putBackMosaicsEv @88
    _ZN22fithisConnectedRegions14setMinimumAreaEi @89
    _ZN22fithisConnectedRegions15setConnectivityE18FithisConnectivity @90
    _ZN22fithisConnectedRegions15setWorkingFrameEP9_IplImage @91
    _ZN22fithisConnectedRegions16fithisUseMemElemEP14_FithisMemElem @92
    _ZN22fithisConnectedRegions17fithisGrowSegmentEP7CvPoint @93
    _ZN22fithisConnectedRegions20fithisExecuteCommandE22fithisConnectedCommand @94
    _ZN22fithisConnectedRegions20fithisRecycleMemElemEP14_FithisMemElem @95
    _ZN22fithisConnectedRegions27fithisFilterConnectedRegionEP7CvPoint @96
    _ZN22fithisConnectedRegionsC1EP9_IplImage @97
    _ZN22fithisConnectedRegionsC2EP9_IplImage @98
    _ZN22fithisConnectedRegionsD1Ev @99
    _ZN22fithisConnectedRegionsD2Ev @100
    _ZTV15DKOSMOPredictor @101 DATA
    checkIfActive @102
    clear_ptrs @103
    create_device_avi_conf @104
    create_device_camera_conf @105
    create_device_conf @106
    create_device_sequence_conf @107
    create_face_detection_conf @108
    create_pixellevel_conf @109
    create_timeserver_conf @110
    destroy_device_avi_conf @111
    destroy_device_camera_conf @112
    destroy_device_conf @113
    destroy_device_sequence_conf @114
    destroy_face_detection_conf @115
    destroy_pixellevel_conf @116
    destroy_timeserver_conf @117
    image_u8_rgb_diff @118
    polymnia_clearvirtualAVI @119
    polymnia_copy_crop_image @120
    polymnia_crop_image @121
    polymnia_virtual2realAVI @122
    run_nonlinear @123
    run_spatioTemporal @124
    send2PolymniaDB @125
    utilities_current_processing @126
    utilities_get_bool @127
    utilities_get_double @128
    utilities_get_integer @129
    utilities_get_scalar @130
    utilities_get_string @131
